target datalayout = "e-m:e-p270:32:32-p271:32:32-p272:64:64-i64:64-i128:128-f80:128-n8:16:32:64-S128"
target triple = "x86_64-pc-linux-gnu"

; Function Attrs: nounwind uwtable
define i32 @Sim_UtilCountOnes(ptr noundef %0, i32 noundef %1) #0 {
  %3 = alloca ptr, align 8
  %4 = alloca i32, align 4
  %5 = alloca ptr, align 8
  %6 = alloca i32, align 4
  %7 = alloca i32, align 4
  %8 = alloca i32, align 4
  store ptr %0, ptr %3, align 8, !tbaa !17
  store i32 %1, ptr %4, align 4, !tbaa !3
  call void @llvm.lifetime.start.p0(i64 8, ptr %5) #8
  call void @llvm.lifetime.start.p0(i64 4, ptr %6) #8
  call void @llvm.lifetime.start.p0(i64 4, ptr %7) #8
  call void @llvm.lifetime.start.p0(i64 4, ptr %8) #8
  %9 = load ptr, ptr %3, align 8, !tbaa !17
  store ptr %9, ptr %5, align 8, !tbaa !83
  %10 = load i32, ptr %4, align 4, !tbaa !3
  %11 = mul nsw i32 4, %10
  store i32 %11, ptr %7, align 4, !tbaa !3
  store i32 0, ptr %6, align 4, !tbaa !3
  store i32 0, ptr %8, align 4, !tbaa !3
  br label %12

12:                                               ; preds = %27, %2
  %13 = load i32, ptr %8, align 4, !tbaa !3
  %14 = load i32, ptr %7, align 4, !tbaa !3
  %15 = icmp slt i32 %13, %14
  br i1 %15, label %16, label %30

16:                                               ; preds = %12
  %17 = load ptr, ptr %5, align 8, !tbaa !83
  %18 = load i32, ptr %8, align 4, !tbaa !3
  %19 = sext i32 %18 to i64
  %20 = getelementptr inbounds i8, ptr %17, i64 %19
  %21 = load i8, ptr %20, align 1, !tbaa !84
  %22 = zext i8 %21 to i64
  %23 = getelementptr inbounds nuw [256 x i32], ptr @bit_count, i64 0, i64 %22
  %24 = load i32, ptr %23, align 4, !tbaa !3
  %25 = load i32, ptr %6, align 4, !tbaa !3
  %26 = add nsw i32 %25, %24
  store i32 %26, ptr %6, align 4, !tbaa !3
  br label %27

27:                                               ; preds = %16
  %28 = load i32, ptr %8, align 4, !tbaa !3
  %29 = add nsw i32 %28, 1
  store i32 %29, ptr %8, align 4, !tbaa !3
  br label %12, !llvm.loop !85

30:                                               ; preds = %12
  %31 = load i32, ptr %6, align 4, !tbaa !3
  call void @llvm.lifetime.end.p0(i64 4, ptr %8) #8
  call void @llvm.lifetime.end.p0(i64 4, ptr %7) #8
  call void @llvm.lifetime.end.p0(i64 4, ptr %6) #8
  call void @llvm.lifetime.end.p0(i64 8, ptr %5) #8
  ret i32 %31
}