; Function Attrs: nofree norecurse nosync nounwind memory(argmem: read) uwtable
define i32 @Sim_UtilCountOnes(ptr noundef readonly captures(none) %0, i32 noundef %1) local_unnamed_addr #10 {
  %3 = icmp sgt i32 %1, 0
  br i1 %3, label %.lr.ph.preheader, label %._crit_edge

.lr.ph.preheader:                                 ; preds = %2
  %4 = shl i32 %1, 2
  %smax = tail call i32 @llvm.smax.i32(i32 %4, i32 1)
  %wide.trip.count = zext nneg i32 %smax to i64
  br label %.lr.ph

.lr.ph:                                           ; preds = %.lr.ph.preheader, %.lr.ph
  %indvars.iv = phi i64 [ 0, %.lr.ph.preheader ], [ %indvars.iv.next, %.lr.ph ]
  %.089 = phi i32 [ 0, %.lr.ph.preheader ], [ %10, %.lr.ph ]
  %5 = getelementptr inbounds nuw i8, ptr %0, i64 %indvars.iv
  %6 = load i8, ptr %5, align 1, !tbaa !77
  %7 = zext i8 %6 to i64
  %8 = getelementptr inbounds nuw [256 x i32], ptr @bit_count, i64 0, i64 %7
  %9 = load i32, ptr %8, align 4, !tbaa !14
  %10 = add nsw i32 %9, %.089
  %indvars.iv.next = add nuw nsw i64 %indvars.iv, 1
  %exitcond.not = icmp eq i64 %indvars.iv.next, %wide.trip.count
  br i1 %exitcond.not, label %._crit_edge, label %.lr.ph, !llvm.loop !78

._crit_edge:                                      ; preds = %.lr.ph, %2
  %.08.lcssa = phi i32 [ 0, %2 ], [ %10, %.lr.ph ]
  ret i32 %.08.lcssa
}